Certificate:
    Data:
        Version: 1 (0x0)
        Serial Number: 42 (0x2a)
        Signature Algorithm: md5WithRSAEncryption
        Issuer: C=SG, ST=SG, L=SG, O=SUTD, OU=ISTD, CN=Jie Yang/emailAddress=jie_yang@mymail.sutd.edu.sg
        Validity
            Not Before: Apr  9 09:40:57 2016 GMT
            Not After : Apr  9 09:40:57 2017 GMT
        Subject: C=SG, ST=Singapore, L=city, O=Singapore University of Technology and Design, OU=school, CN=Nguyen Tuan Anh/emailAddress=nguyen_tuananh@mymail.sutd.edu.sg
        Subject Public Key Info:
            Public Key Algorithm: rsaEncryption
            RSA Public Key: (1024 bit)
                Modulus (1024 bit):
                    00:b0:53:ae:5d:9d:07:2c:f6:dc:b5:64:7c:53:ff:
                    a8:b5:2c:f8:46:43:4b:2d:22:be:65:d7:b4:e4:08:
                    7f:68:13:f0:df:9f:f6:e8:d0:32:7b:b5:2d:07:2c:
                    48:6a:97:10:b1:cf:af:61:6f:4f:da:67:c7:35:95:
                    24:26:36:19:6b:ce:89:a7:91:ee:2f:92:56:51:92:
                    0c:e1:92:43:31:b5:47:ea:bb:70:83:76:cc:a6:c6:
                    e8:67:89:b9:75:8a:1b:b3:3d:46:88:14:d9:dc:3a:
                    65:a6:b9:8a:d4:f4:cf:bd:e2:a1:d3:cf:05:6c:54:
                    78:4c:cf:64:ef:8f:de:36:e5
                Exponent: 65537 (0x10001)
    Signature Algorithm: md5WithRSAEncryption
        60:d6:c4:e2:b9:1b:e9:77:6e:6b:12:c1:60:5e:9c:03:d6:18:
        40:42:b4:60:9d:19:51:09:b0:25:21:5c:f4:5c:d5:0f:31:9c:
        4b:8d:74:10:ac:ee:66:c7:4a:70:e4:c9:3f:34:6b:d1:e0:f5:
        b0:10:bf:87:cb:52:75:cd:0d:0a:a8:f8:ed:71:55:f8:55:c2:
        70:78:75:0b:8d:51:ef:d8:c2:96:27:6d:4a:20:ed:fa:d3:07:
        45:bd:42:63:bf:6c:bc:4a:1a:90:99:cf:48:ce:39:66:76:3e:
        9e:a7:d0:83:2d:49:f1:c8:3b:09:bf:da:09:db:a7:89:e5:ea:
        ad:6b
-----BEGIN CERTIFICATE-----
MIICujCCAiMCASowDQYJKoZIhvcNAQEEBQAwgYQxCzAJBgNVBAYTAlNHMQswCQYD
VQQIEwJTRzELMAkGA1UEBxMCU0cxDTALBgNVBAoTBFNVVEQxDTALBgNVBAsTBElT
VEQxETAPBgNVBAMTCEppZSBZYW5nMSowKAYJKoZIhvcNAQkBFhtqaWVfeWFuZ0Bt
eW1haWwuc3V0ZC5lZHUuc2cwHhcNMTYwNDA5MDk0MDU3WhcNMTcwNDA5MDk0MDU3
WjCBxTELMAkGA1UEBhMCU0cxEjAQBgNVBAgMCVNpbmdhcG9yZTENMAsGA1UEBwwE
Y2l0eTE2MDQGA1UECgwtU2luZ2Fwb3JlIFVuaXZlcnNpdHkgb2YgVGVjaG5vbG9n
eSBhbmQgRGVzaWduMQ8wDQYDVQQLDAZzY2hvb2wxGDAWBgNVBAMMD05ndXllbiBU
dWFuIEFuaDEwMC4GCSqGSIb3DQEJARYhbmd1eWVuX3R1YW5hbmhAbXltYWlsLnN1
dGQuZWR1LnNnMIGfMA0GCSqGSIb3DQEBAQUAA4GNADCBiQKBgQCwU65dnQcs9ty1
ZHxT/6i1LPhGQ0stIr5l17TkCH9oE/Dfn/bo0DJ7tS0HLEhqlxCxz69hb0/aZ8c1
lSQmNhlrzomnke4vklZRkgzhkkMxtUfqu3CDdsymxuhnibl1ihuzPUaIFNncOmWm
uYrU9M+94qHTzwVsVHhMz2Tvj9425QIDAQABMA0GCSqGSIb3DQEBBAUAA4GBAGDW
xOK5G+l3bmsSwWBenAPWGEBCtGCdGVEJsCUhXPRc1Q8xnEuNdBCs7mbHSnDkyT80
a9Hg9bAQv4fLUnXNDQqo+O1xVfhVwnB4dQuNUe/YwpYnbUog7frTB0W9QmO/bLxK
GpCZz0jOOWZ2Pp6n0IMtSfHIOwm/2gnbp4nl6q1r
-----END CERTIFICATE-----
